; ModuleID = '31/1723.c'
source_filename = "31/1723.c"
target datalayout = "e-m:e-p270:32:32-p271:32:32-p272:64:64-i64:64-f80:128-n8:16:32:64-S128"
target triple = "x86_64-pc-linux-gnu"

%struct.student = type { [200 x i8], %struct.student* }

@.str = private unnamed_addr constant [4 x i8] c"%s\0A\00", align 1

; Function Attrs: noinline nounwind uwtable
define dso_local %struct.student* @create(i32 %0) #0 {
  %2 = alloca i32, align 4
  %3 = alloca %struct.student*, align 8
  %4 = alloca %struct.student*, align 8
  %5 = alloca %struct.student*, align 8
  store i32 %0, i32* %2, align 4
  %6 = call noalias i8* @malloc(i64 208) #3
  %7 = bitcast i8* %6 to %struct.student*
  store %struct.student* %7, %struct.student** %4, align 8
  store %struct.student* %7, %struct.student** %3, align 8
  %8 = load %struct.student*, %struct.student** %3, align 8
  %9 = getelementptr inbounds %struct.student, %struct.student* %8, i32 0, i32 1
  store %struct.student* null, %struct.student** %9, align 8
  %10 = load %struct.student*, %struct.student** %3, align 8
  %11 = getelementptr inbounds %struct.student, %struct.student* %10, i32 0, i32 0
  %12 = getelementptr inbounds [200 x i8], [200 x i8]* %11, i64 0, i64 0
  %13 = call i32 (i8*, ...) bitcast (i32 (...)* @gets to i32 (i8*, ...)*)(i8* %12)
  br label %14

14:                                               ; preds = %21, %1
  %15 = load %struct.student*, %struct.student** %3, align 8
  %16 = getelementptr inbounds %struct.student, %struct.student* %15, i32 0, i32 0
  %17 = getelementptr inbounds [200 x i8], [200 x i8]* %16, i64 0, i64 0
  %18 = load i8, i8* %17, align 8
  %19 = sext i8 %18 to i32
  %20 = icmp ne i32 %19, 101
  br i1 %20, label %21, label %32

21:                                               ; preds = %14
  %22 = load %struct.student*, %struct.student** %3, align 8
  store %struct.student* %22, %struct.student** %4, align 8
  %23 = call noalias i8* @malloc(i64 208) #3
  %24 = bitcast i8* %23 to %struct.student*
  store %struct.student* %24, %struct.student** %3, align 8
  %25 = load %struct.student*, %struct.student** %4, align 8
  %26 = load %struct.student*, %struct.student** %3, align 8
  %27 = getelementptr inbounds %struct.student, %struct.student* %26, i32 0, i32 1
  store %struct.student* %25, %struct.student** %27, align 8
  %28 = load %struct.student*, %struct.student** %3, align 8
  %29 = getelementptr inbounds %struct.student, %struct.student* %28, i32 0, i32 0
  %30 = getelementptr inbounds [200 x i8], [200 x i8]* %29, i64 0, i64 0
  %31 = call i32 (i8*, ...) bitcast (i32 (...)* @gets to i32 (i8*, ...)*)(i8* %30)
  br label %14

32:                                               ; preds = %14
  %33 = load %struct.student*, %struct.student** %4, align 8
  store %struct.student* %33, %struct.student** %5, align 8
  %34 = load %struct.student*, %struct.student** %5, align 8
  ret %struct.student* %34
}

; Function Attrs: nounwind
declare dso_local noalias i8* @malloc(i64) #1

declare dso_local i32 @gets(...) #2

; Function Attrs: noinline nounwind uwtable
define dso_local i32 @main() #0 {
  %1 = alloca i32, align 4
  %2 = alloca %struct.student*, align 8
  %3 = alloca i32, align 4
  store i32 0, i32* %1, align 4
  %4 = load i32, i32* %3, align 4
  %5 = call %struct.student* @create(i32 %4)
  store %struct.student* %5, %struct.student** %2, align 8
  br label %6

6:                                                ; preds = %9, %0
  %7 = load %struct.student*, %struct.student** %2, align 8
  %8 = icmp ne %struct.student* %7, null
  br i1 %8, label %9, label %17

9:                                                ; preds = %6
  %10 = load %struct.student*, %struct.student** %2, align 8
  %11 = getelementptr inbounds %struct.student, %struct.student* %10, i32 0, i32 0
  %12 = getelementptr inbounds [200 x i8], [200 x i8]* %11, i64 0, i64 0
  %13 = call i32 (i8*, ...) @printf(i8* getelementptr inbounds ([4 x i8], [4 x i8]* @.str, i64 0, i64 0), i8* %12)
  %14 = load %struct.student*, %struct.student** %2, align 8
  %15 = getelementptr inbounds %struct.student, %struct.student* %14, i32 0, i32 1
  %16 = load %struct.student*, %struct.student** %15, align 8
  store %struct.student* %16, %struct.student** %2, align 8
  br label %6

17:                                               ; preds = %6
  %18 = load i32, i32* %1, align 4
  ret i32 %18
}

declare dso_local i32 @printf(i8*, ...) #2


!llvm.module.flags = !{!0}
!llvm.ident = !{!1}

!0 = !{i32 1, !"wchar_size", i32 4}
!1 = !{!"clang version 10.0.0-4ubuntu1 "}
