; ModuleID = 'source-C-CXX/30/1723.c'
source_filename = "source-C-CXX/30/1723.c"
target datalayout = "e-m:e-p270:32:32-p271:32:32-p272:64:64-i64:64-f80:128-n8:16:32:64-S128"
target triple = "x86_64-pc-linux-gnu"

%struct.student = type { [200 x i8], %struct.student* }

; Function Attrs: nounwind sspstrong uwtable
define dso_local %struct.student* @create(i32 %0) local_unnamed_addr #0 {
  %2 = tail call noalias align 16 dereferenceable_or_null(208) i8* @malloc(i64 208) #4
  %3 = bitcast i8* %2 to %struct.student*
  %4 = getelementptr inbounds %struct.student, %struct.student* %3, i64 0, i32 1
  store %struct.student* null, %struct.student** %4, align 8, !tbaa !5
  %5 = getelementptr inbounds %struct.student, %struct.student* %3, i64 0, i32 0, i64 0
  %6 = tail call i32 (i8*, ...) bitcast (i32 (...)* @gets to i32 (i8*, ...)*)(i8* %5) #4
  %7 = load i8, i8* %5, align 16, !tbaa !10
  %8 = icmp eq i8 %7, 101
  br i1 %8, label %18, label %9

9:                                                ; preds = %1, %9
  %10 = phi %struct.student* [ %12, %9 ], [ %3, %1 ]
  %11 = tail call noalias align 16 dereferenceable_or_null(208) i8* @malloc(i64 208) #4
  %12 = bitcast i8* %11 to %struct.student*
  %13 = getelementptr inbounds %struct.student, %struct.student* %12, i64 0, i32 1
  store %struct.student* %10, %struct.student** %13, align 8, !tbaa !5
  %14 = getelementptr inbounds %struct.student, %struct.student* %12, i64 0, i32 0, i64 0
  %15 = tail call i32 (i8*, ...) bitcast (i32 (...)* @gets to i32 (i8*, ...)*)(i8* %14) #4
  %16 = load i8, i8* %14, align 16, !tbaa !10
  %17 = icmp eq i8 %16, 101
  br i1 %17, label %18, label %9, !llvm.loop !11

18:                                               ; preds = %9, %1
  %19 = phi %struct.student* [ %3, %1 ], [ %10, %9 ]
  ret %struct.student* %19
}

; Function Attrs: inaccessiblememonly mustprogress nofree nounwind willreturn
declare noalias noundef align 16 i8* @malloc(i64 noundef) local_unnamed_addr #1

declare i32 @gets(...) local_unnamed_addr #2

; Function Attrs: nounwind sspstrong uwtable
define dso_local i32 @main() local_unnamed_addr #0 {
  %1 = tail call noalias align 16 dereferenceable_or_null(208) i8* @malloc(i64 208) #4
  %2 = bitcast i8* %1 to %struct.student*
  %3 = getelementptr inbounds %struct.student, %struct.student* %2, i64 0, i32 1
  store %struct.student* null, %struct.student** %3, align 8, !tbaa !5
  %4 = getelementptr inbounds %struct.student, %struct.student* %2, i64 0, i32 0, i64 0
  %5 = tail call i32 (i8*, ...) bitcast (i32 (...)* @gets to i32 (i8*, ...)*)(i8* %4) #4
  %6 = load i8, i8* %4, align 16, !tbaa !10
  %7 = icmp eq i8 %6, 101
  br i1 %7, label %17, label %8

8:                                                ; preds = %0, %8
  %9 = phi %struct.student* [ %11, %8 ], [ %2, %0 ]
  %10 = tail call noalias align 16 dereferenceable_or_null(208) i8* @malloc(i64 208) #4
  %11 = bitcast i8* %10 to %struct.student*
  %12 = getelementptr inbounds %struct.student, %struct.student* %11, i64 0, i32 1
  store %struct.student* %9, %struct.student** %12, align 8, !tbaa !5
  %13 = getelementptr inbounds %struct.student, %struct.student* %11, i64 0, i32 0, i64 0
  %14 = tail call i32 (i8*, ...) bitcast (i32 (...)* @gets to i32 (i8*, ...)*)(i8* %13) #4
  %15 = load i8, i8* %13, align 16, !tbaa !10
  %16 = icmp eq i8 %15, 101
  br i1 %16, label %17, label %8, !llvm.loop !11

17:                                               ; preds = %8, %0
  %18 = phi %struct.student* [ %2, %0 ], [ %9, %8 ]
  br label %19

19:                                               ; preds = %17, %19
  %20 = phi %struct.student* [ %24, %19 ], [ %18, %17 ]
  %21 = getelementptr inbounds %struct.student, %struct.student* %20, i64 0, i32 0, i64 0
  %22 = tail call i32 @puts(i8* nonnull %21)
  %23 = getelementptr inbounds %struct.student, %struct.student* %20, i64 0, i32 1
  %24 = load %struct.student*, %struct.student** %23, align 8, !tbaa !5
  %25 = icmp eq %struct.student* %24, null
  br i1 %25, label %26, label %19, !llvm.loop !13

26:                                               ; preds = %19
  ret i32 0
}

; Function Attrs: nofree nounwind
declare noundef i32 @puts(i8* nocapture noundef readonly) local_unnamed_addr #3


!llvm.module.flags = !{!0, !1, !2, !3}
!llvm.ident = !{!4}

!0 = !{i32 1, !"wchar_size", i32 4}
!1 = !{i32 7, !"PIC Level", i32 2}
!2 = !{i32 7, !"PIE Level", i32 2}
!3 = !{i32 7, !"uwtable", i32 1}
!4 = !{!"clang version 13.0.0"}
!5 = !{!6, !9, i64 200}
!6 = !{!"student", !7, i64 0, !9, i64 200}
!7 = !{!"omnipotent char", !8, i64 0}
!8 = !{!"Simple C/C++ TBAA"}
!9 = !{!"any pointer", !7, i64 0}
!10 = !{!7, !7, i64 0}
!11 = distinct !{!11, !12}
!12 = !{!"llvm.loop.mustprogress"}
!13 = distinct !{!13, !12}
